; ModuleID = 'source-C-CXX/59/1947.c'
source_filename = "source-C-CXX/59/1947.c"
target datalayout = "e-m:e-p270:32:32-p271:32:32-p272:64:64-i64:64-f80:128-n8:16:32:64-S128"
target triple = "x86_64-pc-linux-gnu"

@.str = private unnamed_addr constant [3 x i8] c"%d\00", align 1
@.str.1 = private unnamed_addr constant [7 x i8] c"%d %d\0A\00", align 1
@.str.2 = private unnamed_addr constant [6 x i8] c"empty\00", align 1

; Function Attrs: nofree nounwind sspstrong uwtable
define dso_local i32 @main() local_unnamed_addr #0 {
  %1 = alloca i32, align 4
  %2 = bitcast i32* %1 to i8*
  call void @llvm.lifetime.start.p0i8(i64 4, i8* nonnull %2) #3
  %3 = call i32 (i8*, ...) @__isoc99_scanf(i8* getelementptr inbounds ([3 x i8], [3 x i8]* @.str, i64 0, i64 0), i32* nonnull %1)
  %4 = load i32, i32* %1, align 4, !tbaa !5
  %5 = icmp slt i32 %4, 5
  br i1 %5, label %45, label %6

6:                                                ; preds = %0, %37
  %7 = phi i32 [ %38, %37 ], [ %4, %0 ]
  %8 = phi i32 [ %42, %37 ], [ 5, %0 ]
  %9 = phi i32 [ %39, %37 ], [ 0, %0 ]
  %10 = phi i32 [ %21, %37 ], [ 3, %0 ]
  br label %11

11:                                               ; preds = %6, %15
  %12 = phi i32 [ %16, %15 ], [ 2, %6 ]
  %13 = urem i32 %10, %12
  %14 = icmp eq i32 %13, 0
  br i1 %14, label %18, label %15

15:                                               ; preds = %11
  %16 = add nuw nsw i32 %12, 1
  %17 = icmp eq i32 %16, %10
  br i1 %17, label %18, label %11, !llvm.loop !9

18:                                               ; preds = %15, %11
  %19 = phi i32 [ %10, %15 ], [ %12, %11 ]
  %20 = icmp eq i32 %19, %10
  %21 = add nuw nsw i32 %10, 2
  br label %22

22:                                               ; preds = %18, %26
  %23 = phi i32 [ 2, %18 ], [ %27, %26 ]
  %24 = urem i32 %21, %23
  %25 = icmp eq i32 %24, 0
  br i1 %25, label %29, label %26

26:                                               ; preds = %22
  %27 = add nuw i32 %23, 1
  %28 = icmp eq i32 %27, %8
  br i1 %28, label %29, label %22, !llvm.loop !11

29:                                               ; preds = %22, %26
  %30 = phi i32 [ %23, %22 ], [ %8, %26 ]
  %31 = icmp eq i32 %30, %21
  %32 = select i1 %20, i1 %31, i1 false
  br i1 %32, label %33, label %37

33:                                               ; preds = %29
  %34 = call i32 (i8*, ...) @printf(i8* nonnull dereferenceable(1) getelementptr inbounds ([7 x i8], [7 x i8]* @.str.1, i64 0, i64 0), i32 %10, i32 %21)
  %35 = add nsw i32 %9, 1
  %36 = load i32, i32* %1, align 4, !tbaa !5
  br label %37

37:                                               ; preds = %29, %33
  %38 = phi i32 [ %36, %33 ], [ %7, %29 ]
  %39 = phi i32 [ %35, %33 ], [ %9, %29 ]
  %40 = add nsw i32 %38, -2
  %41 = icmp sgt i32 %21, %40
  %42 = add i32 %8, 2
  br i1 %41, label %43, label %6, !llvm.loop !12

43:                                               ; preds = %37
  %44 = icmp eq i32 %39, 0
  br i1 %44, label %45, label %47

45:                                               ; preds = %0, %43
  %46 = call i32 (i8*, ...) @printf(i8* nonnull dereferenceable(1) getelementptr inbounds ([6 x i8], [6 x i8]* @.str.2, i64 0, i64 0))
  br label %47

47:                                               ; preds = %45, %43
  call void @llvm.lifetime.end.p0i8(i64 4, i8* nonnull %2) #3
  ret i32 0
}

; Function Attrs: argmemonly mustprogress nofree nosync nounwind willreturn
declare void @llvm.lifetime.start.p0i8(i64 immarg, i8* nocapture) #1

; Function Attrs: nofree nounwind
declare noundef i32 @__isoc99_scanf(i8* nocapture noundef readonly, ...) local_unnamed_addr #2

; Function Attrs: nofree nounwind
declare noundef i32 @printf(i8* nocapture noundef readonly, ...) local_unnamed_addr #2

; Function Attrs: argmemonly mustprogress nofree nosync nounwind willreturn
declare void @llvm.lifetime.end.p0i8(i64 immarg, i8* nocapture) #1


!llvm.module.flags = !{!0, !1, !2, !3}
!llvm.ident = !{!4}

!0 = !{i32 1, !"wchar_size", i32 4}
!1 = !{i32 7, !"PIC Level", i32 2}
!2 = !{i32 7, !"PIE Level", i32 2}
!3 = !{i32 7, !"uwtable", i32 1}
!4 = !{!"clang version 13.0.0"}
!5 = !{!6, !6, i64 0}
!6 = !{!"int", !7, i64 0}
!7 = !{!"omnipotent char", !8, i64 0}
!8 = !{!"Simple C/C++ TBAA"}
!9 = distinct !{!9, !10}
!10 = !{!"llvm.loop.mustprogress"}
!11 = distinct !{!11, !10}
!12 = distinct !{!12, !10}
